target datalayout = "e-m:e-p270:32:32-p271:32:32-p272:64:64-i64:64-i128:128-f80:128-n8:16:32:64-S128"
target triple = "x86_64-pc-linux-gnu"

; Function Attrs: nounwind uwtable
define internal void @unquantize(ptr noundef %0, i32 noundef %1, i32 noundef %2, double noundef %3, ptr noundef %4) #0 {
  %6 = alloca ptr, align 8
  %7 = alloca i32, align 4
  %8 = alloca i32, align 4
  %9 = alloca double, align 8
  %10 = alloca ptr, align 8
  %11 = alloca i32, align 4
  %12 = alloca i32, align 4
  %13 = alloca i32, align 4
  store ptr %0, ptr %6, align 8, !tbaa !26
  store i32 %1, ptr %7, align 4, !tbaa !8
  store i32 %2, ptr %8, align 4, !tbaa !8
  store double %3, ptr %9, align 8, !tbaa !28
  store ptr %4, ptr %10, align 8, !tbaa !3
  call void @llvm.lifetime.start.p0(i64 4, ptr %11) #7
  call void @llvm.lifetime.start.p0(i64 4, ptr %12) #7
  call void @llvm.lifetime.start.p0(i64 4, ptr %13) #7
  store i32 0, ptr %11, align 4, !tbaa !8
  br label %14

14:                                               ; preds = %64, %5
  %15 = load i32, ptr %11, align 4, !tbaa !8
  %16 = load i32, ptr %8, align 4, !tbaa !8
  %17 = icmp slt i32 %15, %16
  br i1 %17, label %18, label %67

18:                                               ; preds = %14
  store i32 0, ptr %12, align 4, !tbaa !8
  br label %19

19:                                               ; preds = %60, %18
  %20 = load i32, ptr %12, align 4, !tbaa !8
  %21 = load i32, ptr %7, align 4, !tbaa !8
  %22 = icmp slt i32 %20, %21
  br i1 %22, label %23, label %63

23:                                               ; preds = %19
  store i32 0, ptr %13, align 4, !tbaa !8
  br label %24

24:                                               ; preds = %56, %23
  %25 = load i32, ptr %13, align 4, !tbaa !8
  %26 = icmp slt i32 %25, 3
  br i1 %26, label %27, label %59

27:                                               ; preds = %24
  %28 = load ptr, ptr %10, align 8, !tbaa !3
  %29 = load i32, ptr %11, align 4, !tbaa !8
  %30 = load i32, ptr %7, align 4, !tbaa !8
  %31 = mul nsw i32 %29, %30
  %32 = mul nsw i32 %31, 3
  %33 = load i32, ptr %12, align 4, !tbaa !8
  %34 = mul nsw i32 %33, 3
  %35 = add nsw i32 %32, %34
  %36 = load i32, ptr %13, align 4, !tbaa !8
  %37 = add nsw i32 %35, %36
  %38 = sext i32 %37 to i64
  %39 = getelementptr inbounds i32, ptr %28, i64 %38
  %40 = load i32, ptr %39, align 4, !tbaa !8
  %41 = sitofp i32 %40 to double
  %42 = load double, ptr %9, align 8, !tbaa !28
  %43 = fmul double %41, %42
  %44 = load ptr, ptr %6, align 8, !tbaa !26
  %45 = load i32, ptr %11, align 4, !tbaa !8
  %46 = load i32, ptr %7, align 4, !tbaa !8
  %47 = mul nsw i32 %45, %46
  %48 = mul nsw i32 %47, 3
  %49 = load i32, ptr %12, align 4, !tbaa !8
  %50 = mul nsw i32 %49, 3
  %51 = add nsw i32 %48, %50
  %52 = load i32, ptr %13, align 4, !tbaa !8
  %53 = add nsw i32 %51, %52
  %54 = sext i32 %53 to i64
  %55 = getelementptr inbounds double, ptr %44, i64 %54
  store double %43, ptr %55, align 8, !tbaa !28
  br label %56

56:                                               ; preds = %27
  %57 = load i32, ptr %13, align 4, !tbaa !8
  %58 = add nsw i32 %57, 1
  store i32 %58, ptr %13, align 4, !tbaa !8
  br label %24, !llvm.loop !44

59:                                               ; preds = %24
  br label %60

60:                                               ; preds = %59
  %61 = load i32, ptr %12, align 4, !tbaa !8
  %62 = add nsw i32 %61, 1
  store i32 %62, ptr %12, align 4, !tbaa !8
  br label %19, !llvm.loop !45

63:                                               ; preds = %19
  br label %64

64:                                               ; preds = %63
  %65 = load i32, ptr %11, align 4, !tbaa !8
  %66 = add nsw i32 %65, 1
  store i32 %66, ptr %11, align 4, !tbaa !8
  br label %14, !llvm.loop !46

67:                                               ; preds = %14
  call void @llvm.lifetime.end.p0(i64 4, ptr %13) #7
  call void @llvm.lifetime.end.p0(i64 4, ptr %12) #7
  call void @llvm.lifetime.end.p0(i64 4, ptr %11) #7
  ret void
}